; Function Attrs: nounwind uwtable
define range(i32 -5, 1) i32 @CVBBDPrecGetWorkSpace(ptr noundef %0, ptr noundef writeonly captures(none) %1, ptr noundef writeonly captures(none) %2) local_unnamed_addr #0 {
  %4 = icmp eq ptr %0, null
  br i1 %4, label %5, label %6

5:                                                ; preds = %3
  tail call void (ptr, i32, i32, ptr, ptr, ptr, ...) @cvProcessError(ptr noundef null, i32 noundef -1, i32 noundef 361, ptr noundef nonnull @__func__.CVBBDPrecGetWorkSpace, ptr noundef nonnull @.str, ptr noundef nonnull @.str.1) #9
  br label %21

6:                                                ; preds = %3
  %7 = getelementptr inbounds nuw i8, ptr %0, i64 1040
  %8 = load ptr, ptr %7, align 8, !tbaa !3
  %9 = icmp eq ptr %8, null
  br i1 %9, label %10, label %11

10:                                               ; preds = %6
  tail call void (ptr, i32, i32, ptr, ptr, ptr, ...) @cvProcessError(ptr noundef nonnull %0, i32 noundef -2, i32 noundef 369, ptr noundef nonnull @__func__.CVBBDPrecGetWorkSpace, ptr noundef nonnull @.str, ptr noundef nonnull @.str.2) #9
  br label %21

11:                                               ; preds = %6
  %12 = getelementptr inbounds nuw i8, ptr %8, i64 240
  %13 = load ptr, ptr %12, align 8, !tbaa !63
  %14 = icmp eq ptr %13, null
  br i1 %14, label %15, label %16

15:                                               ; preds = %11
  tail call void (ptr, i32, i32, ptr, ptr, ptr, ...) @cvProcessError(ptr noundef nonnull %0, i32 noundef -5, i32 noundef 377, ptr noundef nonnull @__func__.CVBBDPrecGetWorkSpace, ptr noundef nonnull @.str, ptr noundef nonnull @.str.6) #9
  br label %21

16:                                               ; preds = %11
  %17 = getelementptr inbounds nuw i8, ptr %13, i64 128
  %18 = load i64, ptr %17, align 8, !tbaa !48
  store i64 %18, ptr %1, align 8, !tbaa !47
  %19 = getelementptr inbounds nuw i8, ptr %13, i64 136
  %20 = load i64, ptr %19, align 8, !tbaa !49
  store i64 %20, ptr %2, align 8, !tbaa !47
  br label %21

21:                                               ; preds = %16, %15, %10, %5
  %.0 = phi i32 [ -1, %5 ], [ -2, %10 ], [ -5, %15 ], [ 0, %16 ]
  ret i32 %.0
}